target datalayout = "e-m:e-p270:32:32-p271:32:32-p272:64:64-i64:64-i128:128-f80:128-n8:16:32:64-S128"
target triple = "x86_64-pc-linux-gnu"

; Function Attrs: mustprogress uwtable
define void @_ZN5tsi_t5resetEv(ptr noundef nonnull align 8 dereferenceable(912) %0) unnamed_addr #0 align 2 {
  %2 = alloca ptr, align 8
  %3 = alloca i32, align 4
  store ptr %0, ptr %2, align 8, !tbaa !7
  %4 = load ptr, ptr %2, align 8
  call void @llvm.lifetime.start.p0(i64 4, ptr %3) #15
  store i32 1, ptr %3, align 4, !tbaa !96
  %5 = load ptr, ptr %4, align 8, !tbaa !99
  %6 = getelementptr inbounds ptr, ptr %5, i64 1
  %7 = load ptr, ptr %6, align 8
  call void %7(ptr noundef nonnull align 8 dereferenceable(912) %4, i64 noundef 33554432, i64 noundef 4, ptr noundef %3)
  call void @llvm.lifetime.end.p0(i64 4, ptr %3) #15
  ret void
}