; Function Attrs: mustprogress uwtable
define void @_ZN5tsi_t5resetEv(ptr noundef nonnull align 8 dereferenceable(912) %0) unnamed_addr #3 align 2 {
  %2 = alloca i32, align 4
  call void @llvm.lifetime.start.p0(i64 4, ptr nonnull %2) #17
  store i32 1, ptr %2, align 4, !tbaa !101
  %3 = load ptr, ptr %0, align 8, !tbaa !93
  %4 = getelementptr inbounds nuw i8, ptr %3, i64 8
  %5 = load ptr, ptr %4, align 8
  call void %5(ptr noundef nonnull align 8 dereferenceable(912) %0, i64 noundef 33554432, i64 noundef 4, ptr noundef nonnull %2)
  call void @llvm.lifetime.end.p0(i64 4, ptr nonnull %2) #17
  ret void
}